Certificate:
    Data:
        Version: 3 (0x2)
        Serial Number: 1 (0x1)
        Signature Algorithm: sha512WithRSAEncryption
        Issuer: CN=CyberSecurity CA, ST=Italy, C=EU/emailAddress=cybersec@mycert.it, O=Root Cert Authority
        Validity
            Not Before: Oct 28 11:36:12 2024 GMT
            Not After : Oct 28 11:36:12 2025 GMT
        Subject: CN=Opengemini, C=IT, ST=Rome, O=Root Cert Authority, OU=Opengemini.it/emailAddress=opengemini@gmail.it
        Subject Public Key Info:
            Public Key Algorithm: rsaEncryption
                Public-Key: (2048 bit)
                Modulus:
                    00:be:8c:f6:99:f9:fb:09:6d:7e:19:3c:b4:ac:fa:
                    9a:01:00:54:55:ca:c7:32:e3:4e:f2:25:09:ed:7a:
                    d9:f4:f3:cb:9e:a0:b8:71:6b:db:cb:82:17:63:17:
                    4c:7c:7d:fa:6d:3e:62:a5:de:fd:d1:21:2c:85:6c:
                    0f:cf:2a:34:d8:b4:8b:14:5a:bb:ee:41:c1:72:62:
                    15:9d:f1:14:1e:cc:fa:bd:84:22:c2:5d:f6:d1:a4:
                    7a:0b:91:62:ed:fc:74:80:b7:02:fe:8a:da:cd:16:
                    1b:7a:07:fe:29:02:e0:50:46:68:df:8b:28:fb:73:
                    d5:02:2d:65:9b:3e:56:07:10:7d:52:07:dd:03:65:
                    d2:83:df:bf:99:6a:c1:db:79:7b:8e:76:43:8c:74:
                    80:7f:f9:8e:05:b3:be:67:bf:61:5e:c1:ed:23:a7:
                    c3:5a:c7:6f:51:c6:2e:c6:10:7a:aa:d8:1a:01:82:
                    39:4c:5a:e6:1f:ee:be:9e:3d:59:91:2c:8c:c9:0c:
                    8e:27:e0:16:3c:45:cc:fc:6c:a5:b5:a1:65:de:e7:
                    75:88:e7:86:b1:70:1b:0e:81:73:c1:6a:de:fc:90:
                    a2:f0:3b:9e:f2:aa:c9:1d:2c:e7:42:78:77:fd:fc:
                    4c:8b:e9:83:d4:8e:a1:ad:51:13:9c:21:54:c3:a2:
                    f5:e5
                Exponent: 65537 (0x10001)
        X509v3 extensions:
            X509v3 Basic Constraints: 
                CA:FALSE
            X509v3 Subject Key Identifier: 
                2F:1A:97:7E:40:72:AD:FD:E3:66:2B:C8:8E:7C:FB:09:0D:C9:21:BB
            X509v3 Authority Key Identifier: 
                ED:D7:45:94:3A:03:2F:91:36:B6:96:A6:B7:D2:C9:A2:87:AB:FD:73
    Signature Algorithm: sha512WithRSAEncryption
    Signature Value:
        25:47:b0:8d:ef:aa:92:03:b9:a6:32:fb:bb:a1:16:6f:86:f5:
        9b:0c:59:98:af:94:70:8e:db:a8:7d:59:16:2d:61:9a:2d:9f:
        ae:6b:be:00:fd:0b:e2:ec:09:56:34:0b:ef:55:95:f4:e6:c4:
        ce:5b:6e:83:d6:48:2d:79:55:94:42:66:9c:84:37:64:aa:52:
        fe:6d:73:10:81:0e:ac:ee:93:9b:e7:40:09:9b:2f:fc:8b:f0:
        f6:46:4a:37:87:54:2f:9c:68:6f:25:87:f9:4b:4e:3b:a0:33:
        e2:12:a1:a9:0b:c3:bb:bf:87:f0:3f:43:14:34:99:7c:ad:3d:
        95:7a:a2:9e:35:e1:0c:40:e1:0a:c6:87:ae:39:fd:3e:ee:01:
        73:12:34:2f:aa:93:b0:4c:a7:b8:64:29:59:27:60:0e:63:9c:
        25:a2:fa:51:53:fd:c7:17:f9:18:e2:4a:d2:01:0a:c9:33:9f:
        98:ed:8f:3b:ac:ba:49:72:79:23:d9:9f:4e:4b:3d:d3:62:2f:
        14:ec:a5:21:89:f1:a7:8f:ae:dc:92:00:d6:7c:fb:e3:8c:8b:
        54:74:3a:aa:9c:88:b7:23:a9:53:e1:a9:3d:71:a4:c3:8b:9f:
        53:53:7e:84:37:65:3f:cc:82:78:5a:49:82:64:1a:98:2c:6d:
        e9:78:e0:9c
-----BEGIN CERTIFICATE-----
MIIDzTCCArWgAwIBAgIBATANBgkqhkiG9w0BAQ0FADB5MRkwFwYDVQQDDBBDeWJl
clNlY3VyaXR5IENBMQ4wDAYDVQQIDAVJdGFseTELMAkGA1UEBhMCRVUxITAfBgkq
hkiG9w0BCQEWEmN5YmVyc2VjQG15Y2VydC5pdDEcMBoGA1UECgwTUm9vdCBDZXJ0
IEF1dGhvcml0eTAeFw0yNDEwMjgxMTM2MTJaFw0yNTEwMjgxMTM2MTJaMIGLMRMw
EQYDVQQDDApPcGVuZ2VtaW5pMQswCQYDVQQGEwJJVDENMAsGA1UECAwEUm9tZTEc
MBoGA1UECgwTUm9vdCBDZXJ0IEF1dGhvcml0eTEWMBQGA1UECwwNT3BlbmdlbWlu
aS5pdDEiMCAGCSqGSIb3DQEJARYTb3BlbmdlbWluaUBnbWFpbC5pdDCCASIwDQYJ
KoZIhvcNAQEBBQADggEPADCCAQoCggEBAL6M9pn5+wltfhk8tKz6mgEAVFXKxzLj
TvIlCe162fTzy56guHFr28uCF2MXTHx9+m0+YqXe/dEhLIVsD88qNNi0ixRau+5B
wXJiFZ3xFB7M+r2EIsJd9tGkeguRYu38dIC3Av6K2s0WG3oH/ikC4FBGaN+LKPtz
1QItZZs+VgcQfVIH3QNl0oPfv5lqwdt5e452Q4x0gH/5jgWzvme/YV7B7SOnw1rH
b1HGLsYQeqrYGgGCOUxa5h/uvp49WZEsjMkMjifgFjxFzPxspbWhZd7ndYjnhrFw
Gw6Bc8Fq3vyQovA7nvKqyR0s50J4d/38TIvpg9SOoa1RE5whVMOi9eUCAwEAAaNN
MEswCQYDVR0TBAIwADAdBgNVHQ4EFgQULxqXfkByrf3jZivIjnz7CQ3JIbswHwYD
VR0jBBgwFoAU7ddFlDoDL5E2tpamt9LJooer/XMwDQYJKoZIhvcNAQENBQADggEB
ACVHsI3vqpIDuaYy+7uhFm+G9ZsMWZivlHCO26h9WRYtYZotn65rvgD9C+LsCVY0
C+9VlfTmxM5bboPWSC15VZRCZpyEN2SqUv5tcxCBDqzuk5vnQAmbL/yL8PZGSjeH
VC+caG8lh/lLTjugM+ISoakLw7u/h/A/QxQ0mXytPZV6op414QxA4QrGh645/T7u
AXMSNC+qk7BMp7hkKVknYA5jnCWi+lFT/ccX+RjiStIBCskzn5jtjzusuklyeSPZ
n05LPdNiLxTspSGJ8aePrtySANZ8++OMi1R0OqqciLcjqVPhqT1xpMOLn1NTfoQ3
ZT/MgnhaSYJkGpgsbel44Jw=
-----END CERTIFICATE-----
